target datalayout = "e-m:e-p270:32:32-p271:32:32-p272:64:64-i64:64-i128:128-f80:128-n8:16:32:64-S128"
target triple = "x86_64-pc-linux-gnu"

%struct.FWCfgState = type { %struct.SysBusDevice, i16, [2 x ptr], ptr, ptr, i16, i32, %struct.Notifier, i32, i8, i64, ptr, %struct.MemoryRegion, i8, i64, i64, i64 }
%struct.SysBusDevice = type { %struct.DeviceState, i32, [32 x %struct.anon], i32, [32 x i32] }
%struct.DeviceState = type { %struct.Object, ptr, ptr, i8, i8, i64, i32, i8, ptr, %struct.NamedGPIOListHead, %struct.NamedClockListHead, %struct.BusStateHead, i32, i32, i32, %struct.ResettableState, ptr, %struct.MemReentrancyGuard }
%struct.Object = type { ptr, ptr, ptr, i32, ptr }
%struct.NamedGPIOListHead = type { ptr }
%struct.NamedClockListHead = type { ptr }
%struct.BusStateHead = type { ptr }
%struct.ResettableState = type { i32, i8, i8 }
%struct.MemReentrancyGuard = type { i8 }
%struct.anon = type { i64, ptr }
%struct.Notifier = type { ptr, %struct.anon.0 }
%struct.anon.0 = type { ptr, ptr }
%struct.MemoryRegion = type { %struct.Object, i8, i8, i8, i8, i8, i8, i8, i8, i8, i8, ptr, ptr, ptr, ptr, ptr, ptr, i32, i128, i64, ptr, i64, i8, i8, i8, i8, ptr, i64, i32, %union.anon, %union.anon.1, %union.anon.2, ptr, i32, ptr, ptr, i8 }
%union.anon = type { %struct.QTailQLink }
%struct.QTailQLink = type { ptr, ptr }
%union.anon.1 = type { %struct.QTailQLink }
%union.anon.2 = type { %struct.QTailQLink }
%struct.FWCfgEntry = type { i32, i8, ptr, ptr, ptr, ptr }
%struct.timeval = type { i64, i64 }

@trace_events_enabled_count = external global i32, align 4
@message_with_timestamp = external global i8, align 1
@qemu_loglevel = external global i32, align 4
@.str.19 = private unnamed_addr constant [8 x i8] c"unknown\00", align 1
@_TRACE_FW_CFG_SELECT_DSTATE = external global i16, align 2
@.str.90 = private unnamed_addr constant [56 x i8] c"%d@%zu.%06zu:fw_cfg_select %p key 0x%04x '%s', ret: %d\0A\00", align 1
@.str.91 = private unnamed_addr constant [43 x i8] c"fw_cfg_select %p key 0x%04x '%s', ret: %d\0A\00", align 1

; Function Attrs: inlinehint nounwind sspstrong uwtable
define internal zeroext i1 @qemu_loglevel_mask(i32 noundef %0) #2 {
  %2 = alloca i32, align 4
  store i32 %0, ptr %2, align 4
  %3 = load i32, ptr @qemu_loglevel, align 4
  %4 = load i32, ptr %2, align 4
  %5 = and i32 %3, %4
  %6 = icmp ne i32 %5, 0
  ret i1 %6
}

; Function Attrs: inlinehint nounwind sspstrong uwtable
define internal void @_nocheck__trace_fw_cfg_select(ptr noundef %0, i16 noundef zeroext %1, ptr noundef %2, i32 noundef %3) #2 {
  %5 = alloca ptr, align 8
  %6 = alloca i16, align 2
  %7 = alloca ptr, align 8
  %8 = alloca i32, align 4
  %9 = alloca %struct.timeval, align 8
  store ptr %0, ptr %5, align 8
  store i16 %1, ptr %6, align 2
  store ptr %2, ptr %7, align 8
  store i32 %3, ptr %8, align 4
  %10 = load i32, ptr @trace_events_enabled_count, align 4
  %11 = icmp ne i32 %10, 0
  %12 = xor i1 %11, true
  %13 = xor i1 %12, true
  %14 = zext i1 %13 to i32
  %15 = sext i32 %14 to i64
  %16 = call i64 @llvm.expect.i64(i64 %15, i64 0)
  %17 = icmp ne i64 %16, 0
  br i1 %17, label %18, label %46

18:                                               ; preds = %4
  %19 = load i16, ptr @_TRACE_FW_CFG_SELECT_DSTATE, align 2
  %20 = zext i16 %19 to i32
  %21 = icmp ne i32 %20, 0
  br i1 %21, label %22, label %46

22:                                               ; preds = %18
  %23 = call zeroext i1 @qemu_loglevel_mask(i32 noundef 32768)
  br i1 %23, label %24, label %46

24:                                               ; preds = %22
  %25 = load i8, ptr @message_with_timestamp, align 1, !range !4, !noundef !5
  %26 = trunc i8 %25 to i1
  br i1 %26, label %27, label %39

27:                                               ; preds = %24
  call void @llvm.lifetime.start.p0(i64 16, ptr %9) #18
  call void @llvm.memset.p0.i64(ptr align 8 %9, i8 0, i64 16, i1 false), !annotation !6
  %28 = call i32 @gettimeofday(ptr noundef %9, ptr noundef null) #18
  %29 = call i32 @qemu_get_thread_id()
  %30 = getelementptr inbounds nuw %struct.timeval, ptr %9, i32 0, i32 0
  %31 = load i64, ptr %30, align 8
  %32 = getelementptr inbounds nuw %struct.timeval, ptr %9, i32 0, i32 1
  %33 = load i64, ptr %32, align 8
  %34 = load ptr, ptr %5, align 8
  %35 = load i16, ptr %6, align 2
  %36 = zext i16 %35 to i32
  %37 = load ptr, ptr %7, align 8
  %38 = load i32, ptr %8, align 4
  call void (ptr, ...) @qemu_log(ptr noundef @.str.90, i32 noundef %29, i64 noundef %31, i64 noundef %33, ptr noundef %34, i32 noundef %36, ptr noundef %37, i32 noundef %38)
  call void @llvm.lifetime.end.p0(i64 16, ptr %9) #18
  br label %45

39:                                               ; preds = %24
  %40 = load ptr, ptr %5, align 8
  %41 = load i16, ptr %6, align 2
  %42 = zext i16 %41 to i32
  %43 = load ptr, ptr %7, align 8
  %44 = load i32, ptr %8, align 4
  call void (ptr, ...) @qemu_log(ptr noundef @.str.91, ptr noundef %40, i32 noundef %42, ptr noundef %43, i32 noundef %44)
  br label %45

45:                                               ; preds = %39, %27
  br label %46

46:                                               ; preds = %45, %22, %18, %4
  ret void
}

; Function Attrs: nounwind sspstrong uwtable
define internal ptr @key_name(i16 noundef zeroext %0) #0 {
  %2 = alloca ptr, align 8
  %3 = alloca i16, align 2
  store i16 %0, ptr %3, align 2
  %4 = load i16, ptr %3, align 2
  %5 = zext i16 %4 to i32
  %6 = and i32 %5, 32768
  %7 = icmp ne i32 %6, 0
  br i1 %7, label %8, label %11

8:                                                ; preds = %1
  %9 = load i16, ptr %3, align 2
  %10 = call ptr @fw_cfg_arch_key_name(i16 noundef zeroext %9)
  store ptr %10, ptr %2, align 8
  br label %21

11:                                               ; preds = %1
  %12 = load i16, ptr %3, align 2
  %13 = zext i16 %12 to i32
  %14 = icmp slt i32 %13, 32
  br i1 %14, label %15, label %20

15:                                               ; preds = %11
  %16 = load i16, ptr %3, align 2
  %17 = zext i16 %16 to i64
  %18 = getelementptr inbounds nuw [32 x ptr], ptr @key_name.fw_cfg_wellknown_keys, i64 0, i64 %17
  %19 = load ptr, ptr %18, align 8
  store ptr %19, ptr %2, align 8
  br label %21

20:                                               ; preds = %11
  store ptr null, ptr %2, align 8
  br label %21

21:                                               ; preds = %20, %15, %8
  %22 = load ptr, ptr %2, align 8
  ret ptr %22
}

; Function Attrs: inlinehint nounwind sspstrong uwtable
define internal zeroext i16 @fw_cfg_file_slots(ptr noundef %0) #2 {
  %2 = alloca ptr, align 8
  store ptr %0, ptr %2, align 8
  %3 = load ptr, ptr %2, align 8
  %4 = getelementptr inbounds nuw %struct.FWCfgState, ptr %3, i32 0, i32 1
  %5 = load i16, ptr %4, align 8
  ret i16 %5
}

; Function Attrs: inlinehint nounwind sspstrong uwtable
define internal void @trace_fw_cfg_select(ptr noundef %0, i16 noundef zeroext %1, ptr noundef %2, i32 noundef %3) #2 {
  %5 = alloca ptr, align 8
  %6 = alloca i16, align 2
  %7 = alloca ptr, align 8
  %8 = alloca i32, align 4
  store ptr %0, ptr %5, align 8
  store i16 %1, ptr %6, align 2
  store ptr %2, ptr %7, align 8
  store i32 %3, ptr %8, align 4
  %9 = load ptr, ptr %5, align 8
  %10 = load i16, ptr %6, align 2
  %11 = load ptr, ptr %7, align 8
  %12 = load i32, ptr %8, align 4
  call void @_nocheck__trace_fw_cfg_select(ptr noundef %9, i16 noundef zeroext %10, ptr noundef %11, i32 noundef %12)
  ret void
}

; Function Attrs: inlinehint nounwind sspstrong uwtable
define internal ptr @trace_key_name(i16 noundef zeroext %0) #2 {
  %2 = alloca i16, align 2
  %3 = alloca ptr, align 8
  store i16 %0, ptr %2, align 2
  call void @llvm.lifetime.start.p0(i64 8, ptr %3) #18
  %4 = load i16, ptr %2, align 2
  %5 = call ptr @key_name(i16 noundef zeroext %4)
  store ptr %5, ptr %3, align 8
  %6 = load ptr, ptr %3, align 8
  %7 = icmp ne ptr %6, null
  br i1 %7, label %8, label %10

8:                                                ; preds = %1
  %9 = load ptr, ptr %3, align 8
  br label %11

10:                                               ; preds = %1
  br label %11

11:                                               ; preds = %10, %8
  %12 = phi ptr [ %9, %8 ], [ @.str.19, %10 ]
  call void @llvm.lifetime.end.p0(i64 8, ptr %3) #18
  ret ptr %12
}

; Function Attrs: inlinehint nounwind sspstrong uwtable
define internal i32 @fw_cfg_max_entry(ptr noundef %0) #2 {
  %2 = alloca ptr, align 8
  store ptr %0, ptr %2, align 8
  %3 = load ptr, ptr %2, align 8
  %4 = call zeroext i16 @fw_cfg_file_slots(ptr noundef %3)
  %5 = zext i16 %4 to i32
  %6 = add i32 32, %5
  ret i32 %6
}

; Function Attrs: nounwind sspstrong uwtable
define internal i32 @fw_cfg_select(ptr noundef %0, i16 noundef zeroext %1) #0 {
  %3 = alloca ptr, align 8
  %4 = alloca i16, align 2
  %5 = alloca i32, align 4
  %6 = alloca i32, align 4
  %7 = alloca ptr, align 8
  store ptr %0, ptr %3, align 8
  store i16 %1, ptr %4, align 2
  call void @llvm.lifetime.start.p0(i64 4, ptr %5) #18
  store i32 0, ptr %5, align 4, !annotation !6
  call void @llvm.lifetime.start.p0(i64 4, ptr %6) #18
  store i32 0, ptr %6, align 4, !annotation !6
  call void @llvm.lifetime.start.p0(i64 8, ptr %7) #18
  store ptr null, ptr %7, align 8, !annotation !6
  %8 = load ptr, ptr %3, align 8
  %9 = getelementptr inbounds nuw %struct.FWCfgState, ptr %8, i32 0, i32 6
  store i32 0, ptr %9, align 4
  %10 = load i16, ptr %4, align 2
  %11 = zext i16 %10 to i32
  %12 = and i32 %11, -49153
  %13 = load ptr, ptr %3, align 8
  %14 = call i32 @fw_cfg_max_entry(ptr noundef %13)
  %15 = icmp uge i32 %12, %14
  br i1 %15, label %16, label %19

16:                                               ; preds = %2
  %17 = load ptr, ptr %3, align 8
  %18 = getelementptr inbounds nuw %struct.FWCfgState, ptr %17, i32 0, i32 5
  store i16 -1, ptr %18, align 16
  store i32 0, ptr %6, align 4
  br label %53

19:                                               ; preds = %2
  %20 = load i16, ptr %4, align 2
  %21 = load ptr, ptr %3, align 8
  %22 = getelementptr inbounds nuw %struct.FWCfgState, ptr %21, i32 0, i32 5
  store i16 %20, ptr %22, align 16
  store i32 1, ptr %6, align 4
  %23 = load i16, ptr %4, align 2
  %24 = zext i16 %23 to i32
  %25 = and i32 %24, 32768
  %26 = icmp ne i32 %25, 0
  %27 = xor i1 %26, true
  %28 = xor i1 %27, true
  %29 = zext i1 %28 to i32
  store i32 %29, ptr %5, align 4
  %30 = load ptr, ptr %3, align 8
  %31 = getelementptr inbounds nuw %struct.FWCfgState, ptr %30, i32 0, i32 2
  %32 = load i32, ptr %5, align 4
  %33 = sext i32 %32 to i64
  %34 = getelementptr inbounds [2 x ptr], ptr %31, i64 0, i64 %33
  %35 = load ptr, ptr %34, align 8
  %36 = load i16, ptr %4, align 2
  %37 = zext i16 %36 to i32
  %38 = and i32 %37, -49153
  %39 = sext i32 %38 to i64
  %40 = getelementptr inbounds %struct.FWCfgEntry, ptr %35, i64 %39
  store ptr %40, ptr %7, align 8
  %41 = load ptr, ptr %7, align 8
  %42 = getelementptr inbounds nuw %struct.FWCfgEntry, ptr %41, i32 0, i32 4
  %43 = load ptr, ptr %42, align 8
  %44 = icmp ne ptr %43, null
  br i1 %44, label %45, label %52

45:                                               ; preds = %19
  %46 = load ptr, ptr %7, align 8
  %47 = getelementptr inbounds nuw %struct.FWCfgEntry, ptr %46, i32 0, i32 4
  %48 = load ptr, ptr %47, align 8
  %49 = load ptr, ptr %7, align 8
  %50 = getelementptr inbounds nuw %struct.FWCfgEntry, ptr %49, i32 0, i32 3
  %51 = load ptr, ptr %50, align 8
  call void %48(ptr noundef %51)
  br label %52

52:                                               ; preds = %45, %19
  br label %53

53:                                               ; preds = %52, %16
  %54 = load ptr, ptr %3, align 8
  %55 = load i16, ptr %4, align 2
  %56 = load i16, ptr %4, align 2
  %57 = call ptr @trace_key_name(i16 noundef zeroext %56)
  %58 = load i32, ptr %6, align 4
  call void @trace_fw_cfg_select(ptr noundef %54, i16 noundef zeroext %55, ptr noundef %57, i32 noundef %58)
  %59 = load i32, ptr %6, align 4
  call void @llvm.lifetime.end.p0(i64 8, ptr %7) #18
  call void @llvm.lifetime.end.p0(i64 4, ptr %6) #18
  call void @llvm.lifetime.end.p0(i64 4, ptr %5) #18
  ret i32 %59
}