; Function Attrs: nounwind sspstrong uwtable
define internal fastcc void @fw_cfg_select(ptr noundef initializes((848, 850), (852, 856)) %0, i16 noundef zeroext %1) unnamed_addr #2 {
  %3 = alloca %struct.timeval, align 8
  %4 = getelementptr inbounds nuw i8, ptr %0, i64 852
  store i32 0, ptr %4, align 4
  %5 = and i16 %1, 16383
  %6 = zext nneg i16 %5 to i32
  %7 = getelementptr i8, ptr %0, i64 808
  %.val = load i16, ptr %7, align 8
  %8 = zext i16 %.val to i32
  %9 = add nuw nsw i32 %8, 32
  %.not = icmp samesign ugt i32 %9, %6
  %10 = getelementptr inbounds nuw i8, ptr %0, i64 848
  br i1 %.not, label %12, label %11

11:                                               ; preds = %2
  store i16 -1, ptr %10, align 16
  br label %24

12:                                               ; preds = %2
  store i16 %1, ptr %10, align 16
  %.lobit = lshr i16 %1, 15
  %13 = getelementptr inbounds nuw i8, ptr %0, i64 816
  %14 = zext nneg i16 %.lobit to i64
  %15 = getelementptr inbounds nuw [2 x ptr], ptr %13, i64 0, i64 %14
  %16 = load ptr, ptr %15, align 8
  %17 = zext nneg i16 %5 to i64
  %18 = getelementptr inbounds nuw %struct.FWCfgEntry, ptr %16, i64 %17
  %19 = getelementptr inbounds nuw i8, ptr %18, i64 24
  %20 = load ptr, ptr %19, align 8
  %.not19 = icmp eq ptr %20, null
  br i1 %.not19, label %24, label %21

21:                                               ; preds = %12
  %22 = getelementptr inbounds nuw i8, ptr %18, i64 16
  %23 = load ptr, ptr %22, align 8
  tail call void %20(ptr noundef %23) #18
  br label %24

24:                                               ; preds = %12, %21, %11
  %.0 = phi i32 [ 0, %11 ], [ 1, %21 ], [ 1, %12 ]
  %.not.i.i = icmp sgt i16 %1, -1
  br i1 %.not.i.i, label %27, label %25

25:                                               ; preds = %24
  %26 = tail call ptr @fw_cfg_arch_key_name(i16 noundef zeroext %1) #18
  br label %trace_key_name.exit

27:                                               ; preds = %24
  %28 = icmp samesign ult i16 %1, 32
  br i1 %28, label %29, label %trace_key_name.exit

29:                                               ; preds = %27
  %30 = zext nneg i16 %1 to i64
  %31 = getelementptr inbounds nuw [32 x ptr], ptr @key_name.fw_cfg_wellknown_keys, i64 0, i64 %30
  %32 = load ptr, ptr %31, align 8
  br label %trace_key_name.exit

trace_key_name.exit:                              ; preds = %25, %27, %29
  %.0.i.i = phi ptr [ %26, %25 ], [ %32, %29 ], [ null, %27 ]
  %.not.i = icmp eq ptr %.0.i.i, null
  %33 = select i1 %.not.i, ptr @.str.19, ptr %.0.i.i
  %34 = load i32, ptr @trace_events_enabled_count, align 4
  %.not.i.i20 = icmp eq i32 %34, 0
  br i1 %.not.i.i20, label %trace_fw_cfg_select.exit, label %35, !prof !6

35:                                               ; preds = %trace_key_name.exit
  %36 = load i16, ptr @_TRACE_FW_CFG_SELECT_DSTATE, align 2
  %.not7.i.i = icmp eq i16 %36, 0
  br i1 %.not7.i.i, label %trace_fw_cfg_select.exit, label %37

37:                                               ; preds = %35
  %38 = load i32, ptr @qemu_loglevel, align 4
  %39 = and i32 %38, 32768
  %.not8.i.i = icmp eq i32 %39, 0
  br i1 %.not8.i.i, label %trace_fw_cfg_select.exit, label %40

40:                                               ; preds = %37
  %41 = load i8, ptr @message_with_timestamp, align 1, !range !4, !noundef !5
  %42 = trunc nuw i8 %41 to i1
  br i1 %42, label %43, label %50

43:                                               ; preds = %40
  call void @llvm.lifetime.start.p0(i64 16, ptr nonnull %3) #18
  call void @llvm.memset.p0.i64(ptr noundef nonnull align 8 dereferenceable(16) %3, i8 0, i64 16, i1 false), !annotation !7
  %44 = call i32 @gettimeofday(ptr noundef nonnull %3, ptr noundef null) #18
  %45 = tail call i32 @qemu_get_thread_id() #18
  %46 = load i64, ptr %3, align 8
  %47 = getelementptr inbounds nuw i8, ptr %3, i64 8
  %48 = load i64, ptr %47, align 8
  %49 = zext i16 %1 to i32
  tail call void (ptr, ...) @qemu_log(ptr noundef nonnull @.str.90, i32 noundef %45, i64 noundef %46, i64 noundef %48, ptr noundef nonnull %0, i32 noundef %49, ptr noundef nonnull %33, i32 noundef range(i32 0, 2) %.0) #18
  call void @llvm.lifetime.end.p0(i64 16, ptr nonnull %3) #18
  br label %trace_fw_cfg_select.exit

50:                                               ; preds = %40
  %51 = zext i16 %1 to i32
  tail call void (ptr, ...) @qemu_log(ptr noundef nonnull @.str.91, ptr noundef nonnull %0, i32 noundef %51, ptr noundef nonnull %33, i32 noundef range(i32 0, 2) %.0) #18
  br label %trace_fw_cfg_select.exit

trace_fw_cfg_select.exit:                         ; preds = %trace_key_name.exit, %35, %37, %43, %50
  ret void
}